target datalayout = "e-m:e-p270:32:32-p271:32:32-p272:64:64-i64:64-i128:128-f80:128-n8:16:32:64-S128"
target triple = "x86_64-pc-linux-gnu"

%struct.H5VL_loc_params_t = type { i32, i32, %union.anon }
%union.anon = type { %struct.H5VL_loc_by_idx }
%struct.H5VL_loc_by_idx = type { ptr, i32, i32, i64, i64 }
%struct.H5VL_group_get_args_t = type { i32, %union.anon.0 }
%union.anon.0 = type { %struct.H5VL_group_get_info_args_t }
%struct.H5VL_group_get_info_args_t = type { %struct.H5VL_loc_params_t, ptr }

@H5_libterm_g = external global i8, align 1
@.str = private unnamed_addr constant [97 x i8] c"generated/home/dtcxzyw/WorkSpace/Projects/compilers/llvm-opt-benchmark/bench/hdf5/hdf5/src/H5G.c\00", align 1
@H5G_init_g = external global i8, align 1
@H5E_CANTSET_g = external global i64, align 8
@H5E_SYM_g = external global i64, align 8
@H5E_ARGS_g = external global i64, align 8
@H5P_LST_DATASET_XFER_ID_g = external global i64, align 8
@H5E_CANTGET_g = external global i64, align 8
@H5E_BADVALUE_g = external global i64, align 8
@.str.53 = private unnamed_addr constant [34 x i8] c"can't set object access arguments\00", align 1
@.str.59 = private unnamed_addr constant [36 x i8] c"group_info parameter cannot be NULL\00", align 1
@.str.60 = private unnamed_addr constant [25 x i8] c"unable to get group info\00", align 1
@__func__.H5G__get_info_by_name_api_common = private unnamed_addr constant [33 x i8] c"H5G__get_info_by_name_api_common\00", align 1

; Function Attrs: nounwind uwtable
define internal i32 @H5G__get_info_by_name_api_common(i64 noundef %0, ptr noundef %1, ptr noundef %2, i64 noundef %3, ptr noundef %4, ptr noundef %5) #0 {
  %7 = alloca i64, align 8
  %8 = alloca ptr, align 8
  %9 = alloca ptr, align 8
  %10 = alloca i64, align 8
  %11 = alloca ptr, align 8
  %12 = alloca ptr, align 8
  %13 = alloca ptr, align 8
  %14 = alloca ptr, align 8
  %15 = alloca %struct.H5VL_group_get_args_t, align 8
  %16 = alloca i32, align 4
  %17 = alloca i8, align 1
  store i64 %0, ptr %7, align 8, !tbaa !3
  store ptr %1, ptr %8, align 8, !tbaa !7
  store ptr %2, ptr %9, align 8, !tbaa !27
  store i64 %3, ptr %10, align 8, !tbaa !3
  store ptr %4, ptr %11, align 8, !tbaa !14
  store ptr %5, ptr %12, align 8, !tbaa !15
  call void @llvm.lifetime.start.p0(i64 8, ptr %13) #5
  store ptr null, ptr %13, align 8, !tbaa !17
  call void @llvm.lifetime.start.p0(i64 8, ptr %14) #5
  %18 = load ptr, ptr %12, align 8, !tbaa !15
  %19 = icmp ne ptr %18, null
  br i1 %19, label %20, label %22

20:                                               ; preds = %6
  %21 = load ptr, ptr %12, align 8, !tbaa !15
  br label %23

22:                                               ; preds = %6
  br label %23

23:                                               ; preds = %22, %20
  %24 = phi ptr [ %21, %20 ], [ %13, %22 ]
  store ptr %24, ptr %14, align 8, !tbaa !15
  call void @llvm.lifetime.start.p0(i64 56, ptr %15) #5
  call void @llvm.lifetime.start.p0(i64 4, ptr %16) #5
  store i32 0, ptr %16, align 4, !tbaa !20
  call void @llvm.lifetime.start.p0(i64 1, ptr %17) #5
  store i8 0, ptr %17, align 1, !tbaa !10
  %25 = load i8, ptr @H5G_init_g, align 1, !tbaa !10, !range !12, !noundef !13
  %26 = trunc i8 %25 to i1
  br i1 %26, label %31, label %27

27:                                               ; preds = %23
  %28 = load i8, ptr @H5_libterm_g, align 1, !tbaa !10, !range !12, !noundef !13
  %29 = trunc i8 %28 to i1
  %30 = xor i1 %29, true
  br label %31

31:                                               ; preds = %27, %23
  %32 = phi i1 [ true, %23 ], [ %30, %27 ]
  %33 = xor i1 %32, true
  %34 = xor i1 %33, true
  %35 = zext i1 %34 to i32
  %36 = sext i32 %35 to i64
  %37 = call i64 @llvm.expect.i64(i64 %36, i64 1)
  %38 = icmp ne i64 %37, 0
  br i1 %38, label %39, label %121

39:                                               ; preds = %31
  %40 = load ptr, ptr %9, align 8, !tbaa !27
  %41 = icmp ne ptr %40, null
  br i1 %41, label %61, label %42

42:                                               ; preds = %39
  br label %43

43:                                               ; preds = %42
  br label %44

44:                                               ; preds = %43
  br label %45

45:                                               ; preds = %44
  %46 = load i64, ptr @H5E_ARGS_g, align 8, !tbaa !3
  %47 = load i64, ptr @H5E_BADVALUE_g, align 8, !tbaa !3
  %48 = call i32 (ptr, ptr, i32, i64, i64, ptr, ...) @H5E_printf_stack(ptr noundef @.str, ptr noundef @__func__.H5G__get_info_by_name_api_common, i32 noundef 660, i64 noundef %46, i64 noundef %47, ptr noundef @.str.59)
  br label %49

49:                                               ; preds = %45
  br label %50

50:                                               ; preds = %49
  store i8 1, ptr %17, align 1, !tbaa !10
  %51 = load i8, ptr %17, align 1, !tbaa !10, !range !12, !noundef !13
  %52 = trunc i8 %51 to i1
  %53 = zext i1 %52 to i8
  store i8 %53, ptr %17, align 1, !tbaa !10
  br label %54

54:                                               ; preds = %50
  br label %55

55:                                               ; preds = %54
  br label %56

56:                                               ; preds = %55
  store i32 -1, ptr %16, align 4, !tbaa !20
  br label %120

57:                                               ; No predecessors!
  br label %58

58:                                               ; preds = %57
  br label %59

59:                                               ; preds = %58
  br label %60

60:                                               ; preds = %59
  br label %61

61:                                               ; preds = %60, %39
  %62 = getelementptr inbounds nuw %struct.H5VL_group_get_args_t, ptr %15, i32 0, i32 0
  store i32 1, ptr %62, align 8, !tbaa !25
  %63 = load i64, ptr %7, align 8, !tbaa !3
  %64 = load ptr, ptr %8, align 8, !tbaa !7
  %65 = load i64, ptr %10, align 8, !tbaa !3
  %66 = load ptr, ptr %14, align 8, !tbaa !15
  %67 = getelementptr inbounds nuw %struct.H5VL_group_get_args_t, ptr %15, i32 0, i32 1
  %68 = getelementptr inbounds nuw %struct.H5VL_group_get_info_args_t, ptr %67, i32 0, i32 0
  %69 = call i32 @H5VL_setup_name_args(i64 noundef %63, ptr noundef %64, i1 noundef zeroext false, i64 noundef %65, ptr noundef %66, ptr noundef %68)
  %70 = icmp slt i32 %69, 0
  br i1 %70, label %71, label %90

71:                                               ; preds = %61
  br label %72

72:                                               ; preds = %71
  br label %73

73:                                               ; preds = %72
  br label %74

74:                                               ; preds = %73
  %75 = load i64, ptr @H5E_SYM_g, align 8, !tbaa !3
  %76 = load i64, ptr @H5E_CANTSET_g, align 8, !tbaa !3
  %77 = call i32 (ptr, ptr, i32, i64, i64, ptr, ...) @H5E_printf_stack(ptr noundef @.str, ptr noundef @__func__.H5G__get_info_by_name_api_common, i32 noundef 666, i64 noundef %75, i64 noundef %76, ptr noundef @.str.53)
  br label %78

78:                                               ; preds = %74
  br label %79

79:                                               ; preds = %78
  store i8 1, ptr %17, align 1, !tbaa !10
  %80 = load i8, ptr %17, align 1, !tbaa !10, !range !12, !noundef !13
  %81 = trunc i8 %80 to i1
  %82 = zext i1 %81 to i8
  store i8 %82, ptr %17, align 1, !tbaa !10
  br label %83

83:                                               ; preds = %79
  br label %84

84:                                               ; preds = %83
  br label %85

85:                                               ; preds = %84
  store i32 -1, ptr %16, align 4, !tbaa !20
  br label %120

86:                                               ; No predecessors!
  br label %87

87:                                               ; preds = %86
  br label %88

88:                                               ; preds = %87
  br label %89

89:                                               ; preds = %88
  br label %90

90:                                               ; preds = %89, %61
  %91 = load ptr, ptr %9, align 8, !tbaa !27
  %92 = getelementptr inbounds nuw %struct.H5VL_group_get_args_t, ptr %15, i32 0, i32 1
  %93 = getelementptr inbounds nuw %struct.H5VL_group_get_info_args_t, ptr %92, i32 0, i32 1
  store ptr %91, ptr %93, align 8, !tbaa !19
  %94 = load ptr, ptr %14, align 8, !tbaa !15
  %95 = load ptr, ptr %94, align 8, !tbaa !17
  %96 = load i64, ptr @H5P_LST_DATASET_XFER_ID_g, align 8, !tbaa !3
  %97 = load ptr, ptr %11, align 8, !tbaa !14
  %98 = call i32 @H5VL_group_get(ptr noundef %95, ptr noundef %15, i64 noundef %96, ptr noundef %97)
  %99 = icmp slt i32 %98, 0
  br i1 %99, label %100, label %119

100:                                              ; preds = %90
  br label %101

101:                                              ; preds = %100
  br label %102

102:                                              ; preds = %101
  br label %103

103:                                              ; preds = %102
  %104 = load i64, ptr @H5E_SYM_g, align 8, !tbaa !3
  %105 = load i64, ptr @H5E_CANTGET_g, align 8, !tbaa !3
  %106 = call i32 (ptr, ptr, i32, i64, i64, ptr, ...) @H5E_printf_stack(ptr noundef @.str, ptr noundef @__func__.H5G__get_info_by_name_api_common, i32 noundef 671, i64 noundef %104, i64 noundef %105, ptr noundef @.str.60)
  br label %107

107:                                              ; preds = %103
  br label %108

108:                                              ; preds = %107
  store i8 1, ptr %17, align 1, !tbaa !10
  %109 = load i8, ptr %17, align 1, !tbaa !10, !range !12, !noundef !13
  %110 = trunc i8 %109 to i1
  %111 = zext i1 %110 to i8
  store i8 %111, ptr %17, align 1, !tbaa !10
  br label %112

112:                                              ; preds = %108
  br label %113

113:                                              ; preds = %112
  br label %114

114:                                              ; preds = %113
  store i32 -1, ptr %16, align 4, !tbaa !20
  br label %120

115:                                              ; No predecessors!
  br label %116

116:                                              ; preds = %115
  br label %117

117:                                              ; preds = %116
  br label %118

118:                                              ; preds = %117
  br label %119

119:                                              ; preds = %118, %90
  br label %120

120:                                              ; preds = %119, %114, %85, %56
  br label %121

121:                                              ; preds = %120, %31
  %122 = load i32, ptr %16, align 4, !tbaa !20
  call void @llvm.lifetime.end.p0(i64 1, ptr %17) #5
  call void @llvm.lifetime.end.p0(i64 4, ptr %16) #5
  call void @llvm.lifetime.end.p0(i64 56, ptr %15) #5
  call void @llvm.lifetime.end.p0(i64 8, ptr %14) #5
  call void @llvm.lifetime.end.p0(i64 8, ptr %13) #5
  ret i32 %122
}