; Function Attrs: nounwind uwtable
define internal fastcc range(i32 -1, 1) i32 @H5G__get_info_by_name_api_common(i64 noundef %0, ptr noundef %1, ptr noundef %2, i64 noundef %3, ptr noundef %4, ptr noundef %5) unnamed_addr #0 {
  %7 = alloca ptr, align 8
  %8 = alloca %struct.H5VL_group_get_args_t, align 8
  call void @llvm.lifetime.start.p0(i64 8, ptr nonnull %7) #4
  store ptr null, ptr %7, align 8, !tbaa !15
  %.not = icmp eq ptr %5, null
  %9 = select i1 %.not, ptr %7, ptr %5
  call void @llvm.lifetime.start.p0(i64 56, ptr nonnull %8) #4
  %10 = load i8, ptr @H5G_init_g, align 1, !tbaa !3, !range !7, !noundef !8
  %11 = trunc nuw i8 %10 to i1
  %12 = load i8, ptr @H5_libterm_g, align 1, !range !7
  %13 = trunc nuw i8 %12 to i1
  %14 = xor i1 %13, true
  %15 = select i1 %11, i1 true, i1 %14
  br i1 %15, label %16, label %39, !prof !9

16:                                               ; preds = %6
  %.not14 = icmp eq ptr %2, null
  br i1 %.not14, label %17, label %21

17:                                               ; preds = %16
  %18 = load i64, ptr @H5E_ARGS_g, align 8, !tbaa !11
  %19 = load i64, ptr @H5E_BADVALUE_g, align 8, !tbaa !11
  %20 = tail call i32 (ptr, ptr, i32, i64, i64, ptr, ...) @H5E_printf_stack(ptr noundef nonnull @.str, ptr noundef nonnull @__func__.H5G__get_info_by_name_api_common, i32 noundef 660, i64 noundef %18, i64 noundef %19, ptr noundef nonnull @.str.59) #4
  br label %39

21:                                               ; preds = %16
  store i32 1, ptr %8, align 8, !tbaa !25
  %22 = getelementptr inbounds nuw i8, ptr %8, i64 8
  %23 = call i32 @H5VL_setup_name_args(i64 noundef %0, ptr noundef %1, i1 noundef zeroext false, i64 noundef %3, ptr noundef nonnull %9, ptr noundef nonnull %22) #4
  %24 = icmp slt i32 %23, 0
  br i1 %24, label %25, label %29

25:                                               ; preds = %21
  %26 = load i64, ptr @H5E_SYM_g, align 8, !tbaa !11
  %27 = load i64, ptr @H5E_CANTSET_g, align 8, !tbaa !11
  %28 = call i32 (ptr, ptr, i32, i64, i64, ptr, ...) @H5E_printf_stack(ptr noundef nonnull @.str, ptr noundef nonnull @__func__.H5G__get_info_by_name_api_common, i32 noundef 666, i64 noundef %26, i64 noundef %27, ptr noundef nonnull @.str.53) #4
  br label %39

29:                                               ; preds = %21
  %30 = getelementptr inbounds nuw i8, ptr %8, i64 48
  store ptr %2, ptr %30, align 8, !tbaa !18
  %31 = load ptr, ptr %9, align 8, !tbaa !15
  %32 = load i64, ptr @H5P_LST_DATASET_XFER_ID_g, align 8, !tbaa !11
  %33 = call i32 @H5VL_group_get(ptr noundef %31, ptr noundef nonnull %8, i64 noundef %32, ptr noundef %4) #4
  %34 = icmp slt i32 %33, 0
  br i1 %34, label %35, label %39

35:                                               ; preds = %29
  %36 = load i64, ptr @H5E_SYM_g, align 8, !tbaa !11
  %37 = load i64, ptr @H5E_CANTGET_g, align 8, !tbaa !11
  %38 = call i32 (ptr, ptr, i32, i64, i64, ptr, ...) @H5E_printf_stack(ptr noundef nonnull @.str, ptr noundef nonnull @__func__.H5G__get_info_by_name_api_common, i32 noundef 671, i64 noundef %36, i64 noundef %37, ptr noundef nonnull @.str.60) #4
  br label %39

39:                                               ; preds = %17, %25, %35, %29, %6
  %.0 = phi i32 [ -1, %25 ], [ -1, %35 ], [ 0, %29 ], [ -1, %17 ], [ 0, %6 ]
  call void @llvm.lifetime.end.p0(i64 56, ptr nonnull %8) #4
  call void @llvm.lifetime.end.p0(i64 8, ptr nonnull %7) #4
  ret i32 %.0
}